target datalayout = "e-m:e-p270:32:32-p271:32:32-p272:64:64-i64:64-i128:128-f80:128-n8:16:32:64-S128"
target triple = "x86_64-pc-linux-gnu"

@.str = private unnamed_addr constant [22 x i8] c"qemu_in_main_thread()\00", align 1
@.str.1 = private unnamed_addr constant [19 x i8] c"../qemu/blockdev.c\00", align 1
@if_name = internal constant [9 x ptr] [ptr @.str.174, ptr @.str.175, ptr @.str.176, ptr @.str.177, ptr @.str.178, ptr @.str.179, ptr @.str.180, ptr @.str.181, ptr @.str.182], align 16
@__PRETTY_FUNCTION__.drive_add = private unnamed_addr constant [73 x i8] c"QemuOpts *drive_add(BlockInterfaceType, int, const char *, const char *)\00", align 1
@.str.3 = private unnamed_addr constant [6 x i8] c"drive\00", align 1
@.str.4 = private unnamed_addr constant [3 x i8] c"if\00", align 1
@error_abort = external global ptr, align 8
@.str.5 = private unnamed_addr constant [6 x i8] c"index\00", align 1
@.str.6 = private unnamed_addr constant [5 x i8] c"file\00", align 1

; Function Attrs: nounwind sspstrong uwtable
define dso_local ptr @drive_add(i32 noundef %0, i32 noundef %1, ptr noundef %2, ptr noundef %3) #0 {
  %5 = alloca ptr, align 8
  %6 = alloca i32, align 4
  %7 = alloca i32, align 4
  %8 = alloca ptr, align 8
  %9 = alloca ptr, align 8
  %10 = alloca ptr, align 8
  %11 = alloca i32, align 4
  store i32 %0, ptr %6, align 4
  store i32 %1, ptr %7, align 4
  store ptr %2, ptr %8, align 8
  store ptr %3, ptr %9, align 8
  call void @llvm.lifetime.start.p0(i64 8, ptr %10) #16
  store ptr null, ptr %10, align 8, !annotation !4
  br label %12

12:                                               ; preds = %4
  %13 = call zeroext i1 @qemu_in_main_thread()
  br i1 %13, label %14, label %15

14:                                               ; preds = %12
  br label %16

15:                                               ; preds = %12
  call void @__assert_fail(ptr noundef @.str, ptr noundef @.str.1, i32 noundef 204, ptr noundef @__PRETTY_FUNCTION__.drive_add) #15
  unreachable

16:                                               ; preds = %14
  br label %17

17:                                               ; preds = %16
  br label %18

18:                                               ; preds = %17
  %19 = call ptr @qemu_find_opts(ptr noundef @.str.3)
  %20 = load ptr, ptr %9, align 8
  %21 = call ptr @qemu_opts_parse_noisily(ptr noundef %19, ptr noundef %20, i1 noundef zeroext false)
  store ptr %21, ptr %10, align 8
  %22 = load ptr, ptr %10, align 8
  %23 = icmp ne ptr %22, null
  br i1 %23, label %25, label %24

24:                                               ; preds = %18
  store ptr null, ptr %5, align 8
  store i32 1, ptr %11, align 4
  br label %52

25:                                               ; preds = %18
  %26 = load i32, ptr %6, align 4
  %27 = icmp ne i32 %26, -1
  br i1 %27, label %28, label %35

28:                                               ; preds = %25
  %29 = load ptr, ptr %10, align 8
  %30 = load i32, ptr %6, align 4
  %31 = sext i32 %30 to i64
  %32 = getelementptr inbounds [9 x ptr], ptr @if_name, i64 0, i64 %31
  %33 = load ptr, ptr %32, align 8
  %34 = call zeroext i1 @qemu_opt_set(ptr noundef %29, ptr noundef @.str.4, ptr noundef %33, ptr noundef @error_abort)
  br label %35

35:                                               ; preds = %28, %25
  %36 = load i32, ptr %7, align 4
  %37 = icmp sge i32 %36, 0
  br i1 %37, label %38, label %43

38:                                               ; preds = %35
  %39 = load ptr, ptr %10, align 8
  %40 = load i32, ptr %7, align 4
  %41 = sext i32 %40 to i64
  %42 = call zeroext i1 @qemu_opt_set_number(ptr noundef %39, ptr noundef @.str.5, i64 noundef %41, ptr noundef @error_abort)
  br label %43

43:                                               ; preds = %38, %35
  %44 = load ptr, ptr %8, align 8
  %45 = icmp ne ptr %44, null
  br i1 %45, label %46, label %50

46:                                               ; preds = %43
  %47 = load ptr, ptr %10, align 8
  %48 = load ptr, ptr %8, align 8
  %49 = call zeroext i1 @qemu_opt_set(ptr noundef %47, ptr noundef @.str.6, ptr noundef %48, ptr noundef @error_abort)
  br label %50

50:                                               ; preds = %46, %43
  %51 = load ptr, ptr %10, align 8
  store ptr %51, ptr %5, align 8
  store i32 1, ptr %11, align 4
  br label %52

52:                                               ; preds = %50, %24
  call void @llvm.lifetime.end.p0(i64 8, ptr %10) #16
  %53 = load ptr, ptr %5, align 8
  ret ptr %53
}