; Function Attrs: nounwind sspstrong uwtable
define dso_local ptr @drive_add(i32 noundef %0, i32 noundef %1, ptr noundef %2, ptr noundef %3) local_unnamed_addr #0 {
  %5 = tail call zeroext i1 @qemu_in_main_thread() #14
  br i1 %5, label %7, label %6

6:                                                ; preds = %4
  tail call void @__assert_fail(ptr noundef nonnull @.str, ptr noundef nonnull @.str.1, i32 noundef 204, ptr noundef nonnull @__PRETTY_FUNCTION__.drive_add) #15
  unreachable

7:                                                ; preds = %4
  %8 = tail call ptr @qemu_find_opts(ptr noundef nonnull @.str.3) #14
  %9 = tail call ptr @qemu_opts_parse_noisily(ptr noundef %8, ptr noundef %3, i1 noundef zeroext false) #14
  %.not = icmp eq ptr %9, null
  br i1 %.not, label %24, label %10

10:                                               ; preds = %7
  %.not16 = icmp eq i32 %0, -1
  br i1 %.not16, label %16, label %11

11:                                               ; preds = %10
  %12 = sext i32 %0 to i64
  %13 = getelementptr inbounds [9 x ptr], ptr @if_name, i64 0, i64 %12
  %14 = load ptr, ptr %13, align 8
  %15 = tail call zeroext i1 @qemu_opt_set(ptr noundef nonnull %9, ptr noundef nonnull @.str.4, ptr noundef %14, ptr noundef nonnull @error_abort) #14
  br label %16

16:                                               ; preds = %11, %10
  %17 = icmp sgt i32 %1, -1
  br i1 %17, label %18, label %21

18:                                               ; preds = %16
  %19 = zext nneg i32 %1 to i64
  %20 = tail call zeroext i1 @qemu_opt_set_number(ptr noundef nonnull %9, ptr noundef nonnull @.str.5, i64 noundef %19, ptr noundef nonnull @error_abort) #14
  br label %21

21:                                               ; preds = %18, %16
  %.not17 = icmp eq ptr %2, null
  br i1 %.not17, label %24, label %22

22:                                               ; preds = %21
  %23 = tail call zeroext i1 @qemu_opt_set(ptr noundef nonnull %9, ptr noundef nonnull @.str.6, ptr noundef nonnull %2, ptr noundef nonnull @error_abort) #14
  br label %24

24:                                               ; preds = %21, %22, %7
  ret ptr %9
}